; Function Attrs: alwaysinline norecurse nounwind uwtable
define internal void @_ZNK8LightGBM16RegressionMetricINS_14QuantileMetricEE4EvalEPKdPKNS_17ObjectiveFunctionE.omp_outlined.35(ptr noalias noundef readonly captures(none) %0, ptr noalias readnone captures(none) %1, ptr noundef readonly captures(none) %2, ptr noundef nonnull align 8 captures(none) dereferenceable(8) %3, ptr noundef nonnull readonly align 8 captures(none) dereferenceable(8) %4) #15 personality ptr @__gxx_personality_v0 {
  %6 = alloca i32, align 4
  %7 = alloca i32, align 4
  %8 = alloca i32, align 4
  %9 = alloca i32, align 4
  %10 = alloca double, align 8
  %11 = alloca [1 x ptr], align 8
  %12 = getelementptr inbounds nuw i8, ptr %2, i64 8
  %13 = load i32, ptr %12, align 8, !tbaa !142
  %14 = icmp sgt i32 %13, 0
  br i1 %14, label %15, label %53

15:                                               ; preds = %5
  %16 = add nsw i32 %13, -1
  call void @llvm.lifetime.start.p0(i64 4, ptr nonnull %6) #16
  store i32 0, ptr %6, align 4, !tbaa !127
  call void @llvm.lifetime.start.p0(i64 4, ptr nonnull %7) #16
  store i32 %16, ptr %7, align 4, !tbaa !127
  call void @llvm.lifetime.start.p0(i64 4, ptr nonnull %8) #16
  store i32 1, ptr %8, align 4, !tbaa !127
  call void @llvm.lifetime.start.p0(i64 4, ptr nonnull %9) #16
  store i32 0, ptr %9, align 4, !tbaa !127
  call void @llvm.lifetime.start.p0(i64 8, ptr nonnull %10) #16
  store double 0.000000e+00, ptr %10, align 8, !tbaa !84
  %17 = load i32, ptr %0, align 4, !tbaa !127
  call void @__kmpc_for_static_init_4(ptr nonnull @1, i32 %17, i32 34, ptr nonnull %9, ptr nonnull %6, ptr nonnull %7, ptr nonnull %8, i32 1, i32 1)
  %18 = load i32, ptr %7, align 4, !tbaa !127
  %19 = call i32 @llvm.smin.i32(i32 %18, i32 %16)
  store i32 %19, ptr %7, align 4, !tbaa !127
  %20 = load i32, ptr %6, align 4, !tbaa !127
  %.not16 = icmp sgt i32 %20, %19
  br i1 %.not16, label %._crit_edge, label %.lr.ph

.lr.ph:                                           ; preds = %15
  %21 = getelementptr inbounds nuw i8, ptr %2, i64 16
  %22 = load ptr, ptr %21, align 8, !tbaa !144
  %23 = load ptr, ptr %4, align 8, !tbaa !81
  %24 = getelementptr inbounds nuw i8, ptr %2, i64 1344
  %25 = load double, ptr %24, align 8
  %26 = fadd double %25, -1.000000e+00
  %27 = getelementptr inbounds nuw i8, ptr %2, i64 24
  %28 = load ptr, ptr %27, align 8, !tbaa !145
  %29 = sext i32 %20 to i64
  %30 = add nsw i32 %19, 1
  br label %31

31:                                               ; preds = %.lr.ph, %31
  %indvars.iv = phi i64 [ %29, %.lr.ph ], [ %indvars.iv.next, %31 ]
  %32 = phi double [ 0.000000e+00, %.lr.ph ], [ %43, %31 ]
  %33 = getelementptr inbounds float, ptr %22, i64 %indvars.iv
  %34 = load float, ptr %33, align 4, !tbaa !78
  %35 = getelementptr inbounds double, ptr %23, i64 %indvars.iv
  %36 = load double, ptr %35, align 8, !tbaa !84
  %37 = fpext float %34 to double
  %38 = fsub double %37, %36
  %39 = fcmp olt double %38, 0.000000e+00
  %.pn.i = select i1 %39, double %26, double %25
  %.0.i = fmul double %38, %.pn.i
  %40 = getelementptr inbounds float, ptr %28, i64 %indvars.iv
  %41 = load float, ptr %40, align 4, !tbaa !78
  %42 = fpext float %41 to double
  %43 = call double @llvm.fmuladd.f64(double %.0.i, double %42, double %32)
  store double %43, ptr %10, align 8, !tbaa !84
  %indvars.iv.next = add nsw i64 %indvars.iv, 1
  %lftr.wideiv = trunc i64 %indvars.iv.next to i32
  %exitcond.not = icmp eq i32 %30, %lftr.wideiv
  br i1 %exitcond.not, label %._crit_edge, label %31

._crit_edge:                                      ; preds = %31, %15
  call void @__kmpc_for_static_fini(ptr nonnull @1, i32 %17)
  store ptr %10, ptr %11, align 8
  %44 = call i32 @__kmpc_reduce_nowait(ptr nonnull @2, i32 %17, i32 1, i64 8, ptr nonnull %11, ptr nonnull @_ZNK8LightGBM16RegressionMetricINS_14QuantileMetricEE4EvalEPKdPKNS_17ObjectiveFunctionE.omp_outlined.35.omp.reduction.reduction_func, ptr nonnull @.gomp_critical_user_.reduction.var)
  switch i32 %44, label %52 [
    i32 1, label %45
    i32 2, label %49
  ]

45:                                               ; preds = %._crit_edge
  %46 = load double, ptr %3, align 8, !tbaa !84
  %47 = load double, ptr %10, align 8, !tbaa !84
  %48 = fadd double %46, %47
  store double %48, ptr %3, align 8, !tbaa !84
  call void @__kmpc_end_reduce_nowait(ptr nonnull @2, i32 %17, ptr nonnull @.gomp_critical_user_.reduction.var)
  br label %52

49:                                               ; preds = %._crit_edge
  %50 = load double, ptr %10, align 8, !tbaa !84
  %51 = atomicrmw fadd ptr %3, double %50 monotonic, align 8
  br label %52

52:                                               ; preds = %49, %45, %._crit_edge
  call void @llvm.lifetime.end.p0(i64 8, ptr nonnull %10) #16
  call void @llvm.lifetime.end.p0(i64 4, ptr nonnull %9) #16
  call void @llvm.lifetime.end.p0(i64 4, ptr nonnull %8) #16
  call void @llvm.lifetime.end.p0(i64 4, ptr nonnull %7) #16
  call void @llvm.lifetime.end.p0(i64 4, ptr nonnull %6) #16
  br label %53

53:                                               ; preds = %52, %5
  ret void
}